target datalayout = "e-m:e-p270:32:32-p271:32:32-p272:64:64-i64:64-i128:128-f80:128-n8:16:32:64-S128"
target triple = "x86_64-pc-linux-gnu"

%"class.llvm::StringRef" = type { ptr, i64 }
%"class.llvm::json::Value" = type { i16, [6 x i8], %"struct.llvm::AlignedCharArrayUnion.117" }
%"struct.llvm::AlignedCharArrayUnion.117" = type { [32 x i8] }
%"class.clang::NodeStreamer" = type { i8, i8, %"class.llvm::SmallVector", %"class.llvm::json::OStream" }
%"class.llvm::SmallVector" = type { %"class.llvm::SmallVectorImpl", %"struct.llvm::SmallVectorStorage" }
%"class.llvm::SmallVectorImpl" = type { %"class.llvm::SmallVectorTemplateBase" }
%"class.llvm::SmallVectorTemplateBase" = type { %"class.llvm::SmallVectorTemplateCommon" }
%"class.llvm::SmallVectorTemplateCommon" = type { %"class.llvm::SmallVectorBase" }
%"class.llvm::SmallVectorBase" = type { ptr, i32, i32 }
%"struct.llvm::SmallVectorStorage" = type { [1024 x i8] }
%"class.llvm::json::OStream" = type { %"class.llvm::SmallVector.4", %"class.llvm::StringRef", ptr, i32, i32 }
%"class.llvm::SmallVector.4" = type { %"class.llvm::SmallVectorImpl.5", %"struct.llvm::SmallVectorStorage.8" }
%"class.llvm::SmallVectorImpl.5" = type { %"class.llvm::SmallVectorTemplateBase.6" }
%"class.llvm::SmallVectorTemplateBase.6" = type { %"class.llvm::SmallVectorTemplateCommon.7" }
%"class.llvm::SmallVectorTemplateCommon.7" = type { %"class.llvm::SmallVectorBase" }
%"struct.llvm::SmallVectorStorage.8" = type { [128 x i8] }
%"class.llvm::function_ref" = type { ptr, i64 }
%class.anon.912 = type { ptr, ptr }
%"class.clang::Stmt" = type { %union.anon.119 }
%union.anon.119 = type { %"class.clang::Stmt::PseudoObjectExprBitfields" }
%"class.clang::Stmt::PseudoObjectExprBitfields" = type { i64 }

@.str.466 = private unnamed_addr constant [6 x i8] c"value\00", align 1

; Function Attrs: mustprogress nounwind uwtable
define linkonce_odr hidden void @_ZNK4llvm12function_refIFvvEEclEv(ptr noundef nonnull align 8 dereferenceable(16) %0) #0 comdat align 2 {
  %2 = alloca ptr, align 8
  store ptr %0, ptr %2, align 8
  %3 = load ptr, ptr %2, align 8
  %4 = getelementptr inbounds nuw %"class.llvm::function_ref", ptr %3, i32 0, i32 0
  %5 = load ptr, ptr %4, align 8
  %6 = getelementptr inbounds nuw %"class.llvm::function_ref", ptr %3, i32 0, i32 1
  %7 = load i64, ptr %6, align 8
  call void %5(i64 noundef %7)
  ret void
}

; Function Attrs: mustprogress nounwind uwtable
define linkonce_odr hidden void @_ZN4llvm4json7OStream13attributeImplENS_9StringRefENS_12function_refIFvvEEE(ptr noundef nonnull align 8 dereferenceable(176) %0, ptr %1, i64 %2, ptr %3, i64 %4) #0 comdat align 2 {
  %6 = alloca %"class.llvm::StringRef", align 8
  %7 = alloca %"class.llvm::function_ref", align 8
  %8 = alloca ptr, align 8
  %9 = alloca %"class.llvm::StringRef", align 8
  %10 = getelementptr inbounds nuw { ptr, i64 }, ptr %6, i32 0, i32 0
  store ptr %1, ptr %10, align 8
  %11 = getelementptr inbounds nuw { ptr, i64 }, ptr %6, i32 0, i32 1
  store i64 %2, ptr %11, align 8
  %12 = getelementptr inbounds nuw { ptr, i64 }, ptr %7, i32 0, i32 0
  store ptr %3, ptr %12, align 8
  %13 = getelementptr inbounds nuw { ptr, i64 }, ptr %7, i32 0, i32 1
  store i64 %4, ptr %13, align 8
  store ptr %0, ptr %8, align 8
  %14 = load ptr, ptr %8, align 8
  call void @llvm.memcpy.p0.p0.i64(ptr align 8 %9, ptr align 8 %6, i64 16, i1 false)
  %15 = getelementptr inbounds nuw { ptr, i64 }, ptr %9, i32 0, i32 0
  %16 = load ptr, ptr %15, align 8
  %17 = getelementptr inbounds nuw { ptr, i64 }, ptr %9, i32 0, i32 1
  %18 = load i64, ptr %17, align 8
  call void @_ZN4llvm4json7OStream14attributeBeginENS_9StringRefE(ptr noundef nonnull align 8 dereferenceable(176) %14, ptr %16, i64 %18)
  call void @_ZNK4llvm12function_refIFvvEEclEv(ptr noundef nonnull align 8 dereferenceable(16) %7)
  call void @_ZN4llvm4json7OStream12attributeEndEv(ptr noundef nonnull align 8 dereferenceable(176) %14)
  ret void
}

; Function Attrs: mustprogress nounwind uwtable
define linkonce_odr hidden void @_ZN4llvm12function_refIFvvEEC2IZNS_4json7OStream9attributeENS_9StringRefERKNS4_5ValueEEUlvE_EEOT_PNSt9enable_ifIXntsr3std7is_sameINS_12remove_cvrefISB_E4typeES2_EE5valueEvE4typeEPNSD_IXooL_ZNSt17integral_constantIbLb1EE5valueEEsr3std14is_convertibleIDTclclsr3stdE7declvalISB_EEEEvEE5valueEvE4typeE(ptr noundef nonnull align 8 dereferenceable(16) %0, ptr noundef nonnull align 8 dereferenceable(16) %1, ptr noundef %2, ptr noundef %3) unnamed_addr #0 comdat align 2 {
  %5 = alloca ptr, align 8
  %6 = alloca ptr, align 8
  %7 = alloca ptr, align 8
  %8 = alloca ptr, align 8
  store ptr %0, ptr %5, align 8
  store ptr %1, ptr %6, align 8
  store ptr %2, ptr %7, align 8
  store ptr %3, ptr %8, align 8
  %9 = load ptr, ptr %5, align 8
  %10 = getelementptr inbounds nuw %"class.llvm::function_ref", ptr %9, i32 0, i32 0
  store ptr @_ZN4llvm12function_refIFvvEE11callback_fnIZNS_4json7OStream9attributeENS_9StringRefERKNS4_5ValueEEUlvE_EEvl, ptr %10, align 8
  %11 = getelementptr inbounds nuw %"class.llvm::function_ref", ptr %9, i32 0, i32 1
  %12 = load ptr, ptr %6, align 8
  %13 = ptrtoint ptr %12 to i64
  store i64 %13, ptr %11, align 8
  ret void
}

; Function Attrs: mustprogress nounwind uwtable
define linkonce_odr hidden void @_ZN4llvm4json5Value6createIbJRbEEEvDpOT0_(ptr noundef nonnull align 8 dereferenceable(40) %0, ptr noundef nonnull align 1 dereferenceable(1) %1) #0 comdat align 2 {
  %3 = alloca ptr, align 8
  %4 = alloca ptr, align 8
  store ptr %0, ptr %3, align 8
  store ptr %1, ptr %4, align 8
  %5 = load ptr, ptr %3, align 8
  %6 = getelementptr inbounds nuw %"class.llvm::json::Value", ptr %5, i32 0, i32 2
  %7 = load ptr, ptr %4, align 8
  %8 = load i8, ptr %7, align 1
  %9 = trunc i8 %8 to i1
  %10 = zext i1 %9 to i8
  store i8 %10, ptr %6, align 8
  ret void
}

; Function Attrs: mustprogress nounwind uwtable
define linkonce_odr hidden noundef i64 @_ZNSt11char_traitsIcE6lengthEPKc(ptr noundef %0) #0 comdat align 2 {
  %2 = alloca ptr, align 8
  store ptr %0, ptr %2, align 8
  %3 = load ptr, ptr %2, align 8
  %4 = call i64 @strlen(ptr noundef %3) #12
  ret i64 %4
}

; Function Attrs: mustprogress nounwind uwtable
define linkonce_odr hidden void @_ZN4llvm4json5ValueD2Ev(ptr noundef nonnull align 8 dereferenceable(40) %0) unnamed_addr #0 comdat align 2 {
  %2 = alloca ptr, align 8
  store ptr %0, ptr %2, align 8
  %3 = load ptr, ptr %2, align 8
  call void @_ZN4llvm4json5Value7destroyEv(ptr noundef nonnull align 8 dereferenceable(40) %3)
  ret void
}

; Function Attrs: mustprogress nounwind uwtable
define linkonce_odr hidden void @_ZN4llvm4json7OStream9attributeENS_9StringRefERKNS0_5ValueE(ptr noundef nonnull align 8 dereferenceable(176) %0, ptr %1, i64 %2, ptr noundef nonnull align 8 dereferenceable(40) %3) #0 comdat align 2 {
  %5 = alloca %"class.llvm::StringRef", align 8
  %6 = alloca ptr, align 8
  %7 = alloca ptr, align 8
  %8 = alloca %"class.llvm::StringRef", align 8
  %9 = alloca %"class.llvm::function_ref", align 8
  %10 = alloca %class.anon.912, align 8
  %11 = getelementptr inbounds nuw { ptr, i64 }, ptr %5, i32 0, i32 0
  store ptr %1, ptr %11, align 8
  %12 = getelementptr inbounds nuw { ptr, i64 }, ptr %5, i32 0, i32 1
  store i64 %2, ptr %12, align 8
  store ptr %0, ptr %6, align 8
  store ptr %3, ptr %7, align 8
  %13 = load ptr, ptr %6, align 8
  call void @llvm.memcpy.p0.p0.i64(ptr align 8 %8, ptr align 8 %5, i64 16, i1 false)
  %14 = getelementptr inbounds nuw %class.anon.912, ptr %10, i32 0, i32 0
  store ptr %13, ptr %14, align 8
  %15 = getelementptr inbounds nuw %class.anon.912, ptr %10, i32 0, i32 1
  %16 = load ptr, ptr %7, align 8
  store ptr %16, ptr %15, align 8
  call void @_ZN4llvm12function_refIFvvEEC2IZNS_4json7OStream9attributeENS_9StringRefERKNS4_5ValueEEUlvE_EEOT_PNSt9enable_ifIXntsr3std7is_sameINS_12remove_cvrefISB_E4typeES2_EE5valueEvE4typeEPNSD_IXooL_ZNSt17integral_constantIbLb1EE5valueEEsr3std14is_convertibleIDTclclsr3stdE7declvalISB_EEEEvEE5valueEvE4typeE(ptr noundef nonnull align 8 dereferenceable(16) %9, ptr noundef nonnull align 8 dereferenceable(16) %10, ptr noundef null, ptr noundef null)
  %17 = getelementptr inbounds nuw { ptr, i64 }, ptr %8, i32 0, i32 0
  %18 = load ptr, ptr %17, align 8
  %19 = getelementptr inbounds nuw { ptr, i64 }, ptr %8, i32 0, i32 1
  %20 = load i64, ptr %19, align 8
  %21 = getelementptr inbounds nuw { ptr, i64 }, ptr %9, i32 0, i32 0
  %22 = load ptr, ptr %21, align 8
  %23 = getelementptr inbounds nuw { ptr, i64 }, ptr %9, i32 0, i32 1
  %24 = load i64, ptr %23, align 8
  call void @_ZN4llvm4json7OStream13attributeImplENS_9StringRefENS_12function_refIFvvEEE(ptr noundef nonnull align 8 dereferenceable(176) %13, ptr %18, i64 %20, ptr %22, i64 %24)
  ret void
}

; Function Attrs: mustprogress nounwind uwtable
define linkonce_odr hidden void @_ZN4llvm4json5ValueC2IbvLb0EEET_(ptr noundef nonnull align 8 dereferenceable(40) %0, i1 noundef zeroext %1) unnamed_addr #0 comdat align 2 {
  %3 = alloca ptr, align 8
  %4 = alloca i8, align 1
  store ptr %0, ptr %3, align 8
  %5 = zext i1 %1 to i8
  store i8 %5, ptr %4, align 1
  %6 = load ptr, ptr %3, align 8
  %7 = getelementptr inbounds nuw %"class.llvm::json::Value", ptr %6, i32 0, i32 0
  store i16 1, ptr %7, align 8
  call void @_ZN4llvm4json5Value6createIbJRbEEEvDpOT0_(ptr noundef nonnull align 8 dereferenceable(40) %6, ptr noundef nonnull align 1 dereferenceable(1) %4)
  ret void
}

; Function Attrs: mustprogress nounwind uwtable
define linkonce_odr hidden noundef zeroext i1 @_ZNK5clang18CXXBoolLiteralExpr8getValueEv(ptr noundef nonnull align 8 dereferenceable(16) %0) #0 comdat align 2 {
  %2 = alloca ptr, align 8
  store ptr %0, ptr %2, align 8
  %3 = load ptr, ptr %2, align 8
  %4 = getelementptr inbounds nuw %"class.clang::Stmt", ptr %3, i32 0, i32 0
  %5 = load i32, ptr %4, align 8
  %6 = lshr i32 %5, 18
  %7 = and i32 %6, 1
  %8 = icmp ne i32 %7, 0
  ret i1 %8
}

; Function Attrs: mustprogress nounwind uwtable
define linkonce_odr hidden void @_ZN4llvm9StringRefC2EPKc(ptr noundef nonnull align 8 dereferenceable(16) %0, ptr noundef %1) unnamed_addr #0 comdat align 2 {
  %3 = alloca ptr, align 8
  %4 = alloca ptr, align 8
  store ptr %0, ptr %3, align 8
  store ptr %1, ptr %4, align 8
  %5 = load ptr, ptr %3, align 8
  %6 = getelementptr inbounds nuw %"class.llvm::StringRef", ptr %5, i32 0, i32 0
  %7 = load ptr, ptr %4, align 8
  store ptr %7, ptr %6, align 8
  %8 = getelementptr inbounds nuw %"class.llvm::StringRef", ptr %5, i32 0, i32 1
  %9 = load ptr, ptr %4, align 8
  %10 = icmp ne ptr %9, null
  br i1 %10, label %11, label %14

11:                                               ; preds = %2
  %12 = load ptr, ptr %4, align 8
  %13 = call noundef i64 @_ZNSt11char_traitsIcE6lengthEPKc(ptr noundef %12)
  br label %15

14:                                               ; preds = %2
  br label %15

15:                                               ; preds = %14, %11
  %16 = phi i64 [ %13, %11 ], [ 0, %14 ]
  store i64 %16, ptr %8, align 8
  ret void
}

; Function Attrs: mustprogress nounwind uwtable
define dso_local void @_ZN5clang14JSONNodeDumper23VisitCXXBoolLiteralExprEPKNS_18CXXBoolLiteralExprE(ptr noundef nonnull align 8 dereferenceable(1312) %0, ptr noundef %1) #0 align 2 {
  %3 = alloca ptr, align 8
  %4 = alloca ptr, align 8
  %5 = alloca %"class.llvm::StringRef", align 8
  %6 = alloca %"class.llvm::json::Value", align 8
  store ptr %0, ptr %3, align 8
  store ptr %1, ptr %4, align 8
  %7 = load ptr, ptr %3, align 8
  %8 = getelementptr inbounds nuw %"class.clang::NodeStreamer", ptr %7, i32 0, i32 3
  call void @_ZN4llvm9StringRefC2EPKc(ptr noundef nonnull align 8 dereferenceable(16) %5, ptr noundef @.str.466)
  %9 = load ptr, ptr %4, align 8
  %10 = call noundef zeroext i1 @_ZNK5clang18CXXBoolLiteralExpr8getValueEv(ptr noundef nonnull align 8 dereferenceable(16) %9)
  call void @_ZN4llvm4json5ValueC2IbvLb0EEET_(ptr noundef nonnull align 8 dereferenceable(40) %6, i1 noundef zeroext %10)
  %11 = getelementptr inbounds nuw { ptr, i64 }, ptr %5, i32 0, i32 0
  %12 = load ptr, ptr %11, align 8
  %13 = getelementptr inbounds nuw { ptr, i64 }, ptr %5, i32 0, i32 1
  %14 = load i64, ptr %13, align 8
  call void @_ZN4llvm4json7OStream9attributeENS_9StringRefERKNS0_5ValueE(ptr noundef nonnull align 8 dereferenceable(176) %8, ptr %12, i64 %14, ptr noundef nonnull align 8 dereferenceable(40) %6)
  call void @_ZN4llvm4json5ValueD2Ev(ptr noundef nonnull align 8 dereferenceable(40) %6) #12
  ret void
}