; Function Attrs: mustprogress nounwind uwtable
define dso_local void @_ZN5clang14JSONNodeDumper23VisitCXXBoolLiteralExprEPKNS_18CXXBoolLiteralExprE(ptr noundef nonnull align 8 dereferenceable(1312) %0, ptr nocapture noundef readonly %1) local_unnamed_addr #0 align 2 {
  %3 = alloca %"class.llvm::json::Value", align 8
  %4 = getelementptr inbounds nuw i8, ptr %0, i64 1048
  %5 = load i32, ptr %1, align 8
  %6 = lshr i32 %5, 18
  %7 = trunc i32 %6 to i8
  %8 = and i8 %7, 1
  store i16 1, ptr %3, align 8
  %9 = getelementptr inbounds nuw i8, ptr %3, i64 8
  store i8 %8, ptr %9, align 8
  tail call void @_ZN4llvm4json7OStream14attributeBeginENS_9StringRefE(ptr noundef nonnull align 8 dereferenceable(176) %4, ptr nonnull @.str.466, i64 5) #20
  call void @_ZN4llvm4json7OStream5valueERKNS0_5ValueE(ptr noundef nonnull align 8 dereferenceable(176) %4, ptr noundef nonnull align 8 dereferenceable(40) %3) #20
  call void @_ZN4llvm4json7OStream12attributeEndEv(ptr noundef nonnull align 8 dereferenceable(176) %4) #20
  call void @_ZN4llvm4json5Value7destroyEv(ptr noundef nonnull align 8 dereferenceable(40) %3) #20
  ret void
}